#include <math.h>
#include <stdio.h>
#include <stdlib.h>
#include <string.h>

int main()
{
    int n,j,i;
    scanf("%d",&n);
    char a[n][10];
    int b[n];
    for(j=0;j<n;j++)
    scanf("%s %d",a[j],&b[j]);
    for(i=100;i>=60;i--) 
    {
                         for(j=0;j<n;j++)
                         {if(b[j]==i)
                         printf("%s\n",a[j]);
                         }
     }
     
     for(j=0;j<n;j++)
     {
                     if(b[j]<60)
                     printf("%s\n",a[j]);
      }
    
    
    getchar();
    getchar();
    getchar();
    getchar();
    getchar();
    getchar();
    getchar();
    

}